target datalayout = "e-m:e-p270:32:32-p271:32:32-p272:64:64-i64:64-i128:128-f80:128-n8:16:32:64-S128"
target triple = "x86_64-pc-linux-gnu"

%struct.Dar_RwrPar_t_ = type { i32, i32, i32, i32, i32, i32, i32, i32, i32, i32 }
%struct.Dar_RefPar_t_ = type { i32, i32, i32, i32, i32, i32, i32, i32 }
%struct.Aig_Man_t_ = type { ptr, ptr, ptr, ptr, ptr, ptr, ptr, %struct.Aig_Obj_t_, i32, i32, i32, i32, i32, i32, [7 x i32], i32, ptr, i32, ptr, i32, ptr, i32, i32, i32, ptr, i32, i32, i32, i32, i32, ptr, ptr, i32, ptr, ptr, i32, ptr, ptr, i32, i32, i32, ptr, ptr, ptr, ptr, ptr, ptr, ptr, ptr, ptr, ptr, ptr, ptr, ptr, ptr, i32, ptr, ptr, ptr, ptr, i32, i64, i64, i64, ptr, ptr }
%struct.Aig_Obj_t_ = type { %union.anon, ptr, ptr, i64, i32, i32, %union.anon.0 }
%union.anon = type { ptr }
%union.anon.0 = type { ptr }
%struct.timespec = type { i64, i64 }

@.str = private unnamed_addr constant [12 x i8] c"Starting:  \00", align 1
@.str.1 = private unnamed_addr constant [12 x i8] c"Balance:   \00", align 1
@.str.2 = private unnamed_addr constant [12 x i8] c"Rewrite:   \00", align 1
@.str.3 = private unnamed_addr constant [12 x i8] c"Refactor:  \00", align 1

; Function Attrs: inlinehint nounwind uwtable
define internal i64 @Abc_Clock() #3 {
  %1 = alloca i64, align 8
  %2 = alloca %struct.timespec, align 8
  %3 = alloca i32, align 4
  %4 = alloca i64, align 8
  call void @llvm.lifetime.start.p0(i64 16, ptr %2) #9
  %5 = call i32 @clock_gettime(i32 noundef 1, ptr noundef %2) #9
  %6 = icmp slt i32 %5, 0
  br i1 %6, label %7, label %8

7:                                                ; preds = %0
  store i64 -1, ptr %1, align 8
  store i32 1, ptr %3, align 4
  br label %19

8:                                                ; preds = %0
  call void @llvm.lifetime.start.p0(i64 8, ptr %4) #9
  %9 = getelementptr inbounds nuw %struct.timespec, ptr %2, i32 0, i32 0
  %10 = load i64, ptr %9, align 8, !tbaa !70
  %11 = mul nsw i64 %10, 1000000
  store i64 %11, ptr %4, align 8, !tbaa !25
  %12 = getelementptr inbounds nuw %struct.timespec, ptr %2, i32 0, i32 1
  %13 = load i64, ptr %12, align 8, !tbaa !72
  %14 = mul nsw i64 %13, 1000000
  %15 = sdiv i64 %14, 1000000000
  %16 = load i64, ptr %4, align 8, !tbaa !25
  %17 = add nsw i64 %16, %15
  store i64 %17, ptr %4, align 8, !tbaa !25
  %18 = load i64, ptr %4, align 8, !tbaa !25
  store i64 %18, ptr %1, align 8
  store i32 1, ptr %3, align 4
  call void @llvm.lifetime.end.p0(i64 8, ptr %4) #9
  br label %19

19:                                               ; preds = %8, %7
  call void @llvm.lifetime.end.p0(i64 16, ptr %2) #9
  %20 = load i64, ptr %1, align 8
  ret i64 %20
}

; Function Attrs: nounwind uwtable
define ptr @Dar_ManRwsat(ptr noundef %0, i32 noundef %1, i32 noundef %2) #0 {
  %4 = alloca ptr, align 8
  %5 = alloca ptr, align 8
  %6 = alloca i32, align 4
  %7 = alloca i32, align 4
  %8 = alloca ptr, align 8
  %9 = alloca i64, align 8
  %10 = alloca %struct.Dar_RwrPar_t_, align 4
  %11 = alloca ptr, align 8
  %12 = alloca %struct.Dar_RefPar_t_, align 4
  %13 = alloca ptr, align 8
  %14 = alloca i32, align 4
  store ptr %0, ptr %5, align 8, !tbaa !3
  store i32 %1, ptr %6, align 4, !tbaa !10
  store i32 %2, ptr %7, align 4, !tbaa !10
  call void @llvm.lifetime.start.p0(i64 8, ptr %8) #9
  call void @llvm.lifetime.start.p0(i64 8, ptr %9) #9
  %15 = load ptr, ptr %5, align 8, !tbaa !3
  %16 = getelementptr inbounds nuw %struct.Aig_Man_t_, ptr %15, i32 0, i32 61
  %17 = load i64, ptr %16, align 8, !tbaa !12
  store i64 %17, ptr %9, align 8, !tbaa !25
  call void @llvm.lifetime.start.p0(i64 40, ptr %10) #9
  call void @llvm.lifetime.start.p0(i64 8, ptr %11) #9
  store ptr %10, ptr %11, align 8, !tbaa !8
  call void @llvm.lifetime.start.p0(i64 32, ptr %12) #9
  call void @llvm.lifetime.start.p0(i64 8, ptr %13) #9
  store ptr %12, ptr %13, align 8, !tbaa !26
  %18 = load ptr, ptr %11, align 8, !tbaa !8
  call void @Dar_ManDefaultRwrParams(ptr noundef %18)
  %19 = load ptr, ptr %13, align 8, !tbaa !26
  call void @Dar_ManDefaultRefParams(ptr noundef %19)
  %20 = load ptr, ptr %11, align 8, !tbaa !8
  %21 = getelementptr inbounds nuw %struct.Dar_RwrPar_t_, ptr %20, i32 0, i32 4
  store i32 0, ptr %21, align 4, !tbaa !28
  %22 = load ptr, ptr %13, align 8, !tbaa !26
  %23 = getelementptr inbounds nuw %struct.Dar_RefPar_t_, ptr %22, i32 0, i32 4
  store i32 0, ptr %23, align 4, !tbaa !30
  %24 = load i32, ptr %7, align 4, !tbaa !10
  %25 = load ptr, ptr %11, align 8, !tbaa !8
  %26 = getelementptr inbounds nuw %struct.Dar_RwrPar_t_, ptr %25, i32 0, i32 8
  store i32 %24, ptr %26, align 4, !tbaa !32
  %27 = load i32, ptr %7, align 4, !tbaa !10
  %28 = load ptr, ptr %13, align 8, !tbaa !26
  %29 = getelementptr inbounds nuw %struct.Dar_RefPar_t_, ptr %28, i32 0, i32 6
  store i32 %27, ptr %29, align 4, !tbaa !33
  %30 = load ptr, ptr %5, align 8, !tbaa !3
  %31 = call ptr @Aig_ManDupDfs(ptr noundef %30)
  store ptr %31, ptr %5, align 8, !tbaa !3
  %32 = load i32, ptr %7, align 4, !tbaa !10
  %33 = icmp ne i32 %32, 0
  br i1 %33, label %34, label %37

34:                                               ; preds = %3
  %35 = call i32 (ptr, ...) @printf(ptr noundef @.str)
  %36 = load ptr, ptr %5, align 8, !tbaa !3
  call void @Aig_ManPrintStats(ptr noundef %36)
  br label %37

37:                                               ; preds = %34, %3
  %38 = load i32, ptr %6, align 4, !tbaa !10
  %39 = icmp ne i32 %38, 0
  br i1 %39, label %40, label %66

40:                                               ; preds = %37
  %41 = load i64, ptr %9, align 8, !tbaa !25
  %42 = load ptr, ptr %5, align 8, !tbaa !3
  %43 = getelementptr inbounds nuw %struct.Aig_Man_t_, ptr %42, i32 0, i32 61
  store i64 %41, ptr %43, align 8, !tbaa !12
  %44 = load ptr, ptr %5, align 8, !tbaa !3
  store ptr %44, ptr %8, align 8, !tbaa !3
  %45 = call ptr @Dar_ManBalance(ptr noundef %44, i32 noundef 0)
  store ptr %45, ptr %5, align 8, !tbaa !3
  %46 = load ptr, ptr %8, align 8, !tbaa !3
  call void @Aig_ManStop(ptr noundef %46)
  %47 = load i32, ptr %7, align 4, !tbaa !10
  %48 = icmp ne i32 %47, 0
  br i1 %48, label %49, label %52

49:                                               ; preds = %40
  %50 = call i32 (ptr, ...) @printf(ptr noundef @.str.1)
  %51 = load ptr, ptr %5, align 8, !tbaa !3
  call void @Aig_ManPrintStats(ptr noundef %51)
  br label %52

52:                                               ; preds = %49, %40
  %53 = load i64, ptr %9, align 8, !tbaa !25
  %54 = icmp ne i64 %53, 0
  br i1 %54, label %55, label %65

55:                                               ; preds = %52
  %56 = call i64 @Abc_Clock()
  %57 = load i64, ptr %9, align 8, !tbaa !25
  %58 = icmp sgt i64 %56, %57
  br i1 %58, label %59, label %65

59:                                               ; preds = %55
  %60 = load ptr, ptr %5, align 8, !tbaa !3
  %61 = icmp ne ptr %60, null
  br i1 %61, label %62, label %64

62:                                               ; preds = %59
  %63 = load ptr, ptr %5, align 8, !tbaa !3
  call void @Aig_ManStop(ptr noundef %63)
  br label %64

64:                                               ; preds = %62, %59
  store ptr null, ptr %4, align 8
  store i32 1, ptr %14, align 4
  br label %181

65:                                               ; preds = %55, %52
  br label %66

66:                                               ; preds = %65, %37
  %67 = load i64, ptr %9, align 8, !tbaa !25
  %68 = load ptr, ptr %5, align 8, !tbaa !3
  %69 = getelementptr inbounds nuw %struct.Aig_Man_t_, ptr %68, i32 0, i32 61
  store i64 %67, ptr %69, align 8, !tbaa !12
  %70 = load ptr, ptr %5, align 8, !tbaa !3
  %71 = load ptr, ptr %11, align 8, !tbaa !8
  %72 = call i32 @Dar_ManRewrite(ptr noundef %70, ptr noundef %71)
  %73 = load ptr, ptr %5, align 8, !tbaa !3
  store ptr %73, ptr %8, align 8, !tbaa !3
  %74 = call ptr @Aig_ManDupDfs(ptr noundef %73)
  store ptr %74, ptr %5, align 8, !tbaa !3
  %75 = load ptr, ptr %8, align 8, !tbaa !3
  call void @Aig_ManStop(ptr noundef %75)
  %76 = load i32, ptr %7, align 4, !tbaa !10
  %77 = icmp ne i32 %76, 0
  br i1 %77, label %78, label %81

78:                                               ; preds = %66
  %79 = call i32 (ptr, ...) @printf(ptr noundef @.str.2)
  %80 = load ptr, ptr %5, align 8, !tbaa !3
  call void @Aig_ManPrintStats(ptr noundef %80)
  br label %81

81:                                               ; preds = %78, %66
  %82 = load i64, ptr %9, align 8, !tbaa !25
  %83 = icmp ne i64 %82, 0
  br i1 %83, label %84, label %94

84:                                               ; preds = %81
  %85 = call i64 @Abc_Clock()
  %86 = load i64, ptr %9, align 8, !tbaa !25
  %87 = icmp sgt i64 %85, %86
  br i1 %87, label %88, label %94

88:                                               ; preds = %84
  %89 = load ptr, ptr %5, align 8, !tbaa !3
  %90 = icmp ne ptr %89, null
  br i1 %90, label %91, label %93

91:                                               ; preds = %88
  %92 = load ptr, ptr %5, align 8, !tbaa !3
  call void @Aig_ManStop(ptr noundef %92)
  br label %93

93:                                               ; preds = %91, %88
  store ptr null, ptr %4, align 8
  store i32 1, ptr %14, align 4
  br label %181

94:                                               ; preds = %84, %81
  %95 = load i64, ptr %9, align 8, !tbaa !25
  %96 = load ptr, ptr %5, align 8, !tbaa !3
  %97 = getelementptr inbounds nuw %struct.Aig_Man_t_, ptr %96, i32 0, i32 61
  store i64 %95, ptr %97, align 8, !tbaa !12
  %98 = load ptr, ptr %5, align 8, !tbaa !3
  %99 = load ptr, ptr %13, align 8, !tbaa !26
  %100 = call i32 @Dar_ManRefactor(ptr noundef %98, ptr noundef %99)
  %101 = load ptr, ptr %5, align 8, !tbaa !3
  store ptr %101, ptr %8, align 8, !tbaa !3
  %102 = call ptr @Aig_ManDupDfs(ptr noundef %101)
  store ptr %102, ptr %5, align 8, !tbaa !3
  %103 = load ptr, ptr %8, align 8, !tbaa !3
  call void @Aig_ManStop(ptr noundef %103)
  %104 = load i32, ptr %7, align 4, !tbaa !10
  %105 = icmp ne i32 %104, 0
  br i1 %105, label %106, label %109

106:                                              ; preds = %94
  %107 = call i32 (ptr, ...) @printf(ptr noundef @.str.3)
  %108 = load ptr, ptr %5, align 8, !tbaa !3
  call void @Aig_ManPrintStats(ptr noundef %108)
  br label %109

109:                                              ; preds = %106, %94
  %110 = load i64, ptr %9, align 8, !tbaa !25
  %111 = icmp ne i64 %110, 0
  br i1 %111, label %112, label %122

112:                                              ; preds = %109
  %113 = call i64 @Abc_Clock()
  %114 = load i64, ptr %9, align 8, !tbaa !25
  %115 = icmp sgt i64 %113, %114
  br i1 %115, label %116, label %122

116:                                              ; preds = %112
  %117 = load ptr, ptr %5, align 8, !tbaa !3
  %118 = icmp ne ptr %117, null
  br i1 %118, label %119, label %121

119:                                              ; preds = %116
  %120 = load ptr, ptr %5, align 8, !tbaa !3
  call void @Aig_ManStop(ptr noundef %120)
  br label %121

121:                                              ; preds = %119, %116
  store ptr null, ptr %4, align 8
  store i32 1, ptr %14, align 4
  br label %181

122:                                              ; preds = %112, %109
  %123 = load i32, ptr %6, align 4, !tbaa !10
  %124 = icmp ne i32 %123, 0
  br i1 %124, label %125, label %151

125:                                              ; preds = %122
  %126 = load i64, ptr %9, align 8, !tbaa !25
  %127 = load ptr, ptr %5, align 8, !tbaa !3
  %128 = getelementptr inbounds nuw %struct.Aig_Man_t_, ptr %127, i32 0, i32 61
  store i64 %126, ptr %128, align 8, !tbaa !12
  %129 = load ptr, ptr %5, align 8, !tbaa !3
  store ptr %129, ptr %8, align 8, !tbaa !3
  %130 = call ptr @Dar_ManBalance(ptr noundef %129, i32 noundef 0)
  store ptr %130, ptr %5, align 8, !tbaa !3
  %131 = load ptr, ptr %8, align 8, !tbaa !3
  call void @Aig_ManStop(ptr noundef %131)
  %132 = load i32, ptr %7, align 4, !tbaa !10
  %133 = icmp ne i32 %132, 0
  br i1 %133, label %134, label %137

134:                                              ; preds = %125
  %135 = call i32 (ptr, ...) @printf(ptr noundef @.str.1)
  %136 = load ptr, ptr %5, align 8, !tbaa !3
  call void @Aig_ManPrintStats(ptr noundef %136)
  br label %137

137:                                              ; preds = %134, %125
  %138 = load i64, ptr %9, align 8, !tbaa !25
  %139 = icmp ne i64 %138, 0
  br i1 %139, label %140, label %150

140:                                              ; preds = %137
  %141 = call i64 @Abc_Clock()
  %142 = load i64, ptr %9, align 8, !tbaa !25
  %143 = icmp sgt i64 %141, %142
  br i1 %143, label %144, label %150

144:                                              ; preds = %140
  %145 = load ptr, ptr %5, align 8, !tbaa !3
  %146 = icmp ne ptr %145, null
  br i1 %146, label %147, label %149

147:                                              ; preds = %144
  %148 = load ptr, ptr %5, align 8, !tbaa !3
  call void @Aig_ManStop(ptr noundef %148)
  br label %149

149:                                              ; preds = %147, %144
  store ptr null, ptr %4, align 8
  store i32 1, ptr %14, align 4
  br label %181

150:                                              ; preds = %140, %137
  br label %151

151:                                              ; preds = %150, %122
  %152 = load i64, ptr %9, align 8, !tbaa !25
  %153 = load ptr, ptr %5, align 8, !tbaa !3
  %154 = getelementptr inbounds nuw %struct.Aig_Man_t_, ptr %153, i32 0, i32 61
  store i64 %152, ptr %154, align 8, !tbaa !12
  %155 = load ptr, ptr %5, align 8, !tbaa !3
  %156 = load ptr, ptr %11, align 8, !tbaa !8
  %157 = call i32 @Dar_ManRewrite(ptr noundef %155, ptr noundef %156)
  %158 = load ptr, ptr %5, align 8, !tbaa !3
  store ptr %158, ptr %8, align 8, !tbaa !3
  %159 = call ptr @Aig_ManDupDfs(ptr noundef %158)
  store ptr %159, ptr %5, align 8, !tbaa !3
  %160 = load ptr, ptr %8, align 8, !tbaa !3
  call void @Aig_ManStop(ptr noundef %160)
  %161 = load i32, ptr %7, align 4, !tbaa !10
  %162 = icmp ne i32 %161, 0
  br i1 %162, label %163, label %166

163:                                              ; preds = %151
  %164 = call i32 (ptr, ...) @printf(ptr noundef @.str.2)
  %165 = load ptr, ptr %5, align 8, !tbaa !3
  call void @Aig_ManPrintStats(ptr noundef %165)
  br label %166

166:                                              ; preds = %163, %151
  %167 = load i64, ptr %9, align 8, !tbaa !25
  %168 = icmp ne i64 %167, 0
  br i1 %168, label %169, label %179

169:                                              ; preds = %166
  %170 = call i64 @Abc_Clock()
  %171 = load i64, ptr %9, align 8, !tbaa !25
  %172 = icmp sgt i64 %170, %171
  br i1 %172, label %173, label %179

173:                                              ; preds = %169
  %174 = load ptr, ptr %5, align 8, !tbaa !3
  %175 = icmp ne ptr %174, null
  br i1 %175, label %176, label %178

176:                                              ; preds = %173
  %177 = load ptr, ptr %5, align 8, !tbaa !3
  call void @Aig_ManStop(ptr noundef %177)
  br label %178

178:                                              ; preds = %176, %173
  store ptr null, ptr %4, align 8
  store i32 1, ptr %14, align 4
  br label %181

179:                                              ; preds = %169, %166
  %180 = load ptr, ptr %5, align 8, !tbaa !3
  store ptr %180, ptr %4, align 8
  store i32 1, ptr %14, align 4
  br label %181

181:                                              ; preds = %179, %178, %149, %121, %93, %64
  call void @llvm.lifetime.end.p0(i64 8, ptr %13) #9
  call void @llvm.lifetime.end.p0(i64 32, ptr %12) #9
  call void @llvm.lifetime.end.p0(i64 8, ptr %11) #9
  call void @llvm.lifetime.end.p0(i64 40, ptr %10) #9
  call void @llvm.lifetime.end.p0(i64 8, ptr %9) #9
  call void @llvm.lifetime.end.p0(i64 8, ptr %8) #9
  %182 = load ptr, ptr %4, align 8
  ret ptr %182
}