; Function Attrs: nounwind uwtable
define ptr @Dar_ManRwsat(ptr noundef %0, i32 noundef %1, i32 noundef %2) local_unnamed_addr #0 {
  %4 = alloca %struct.timespec, align 8
  %5 = alloca %struct.timespec, align 8
  %6 = alloca %struct.timespec, align 8
  %7 = alloca %struct.timespec, align 8
  %8 = alloca %struct.timespec, align 8
  %9 = alloca %struct.Dar_RwrPar_t_, align 4
  %10 = alloca %struct.Dar_RefPar_t_, align 4
  %11 = getelementptr inbounds nuw i8, ptr %0, i64 488
  %12 = load i64, ptr %11, align 8, !tbaa !3
  call void @llvm.lifetime.start.p0(i64 40, ptr nonnull %9) #13
  call void @llvm.lifetime.start.p0(i64 32, ptr nonnull %10) #13
  call void @Dar_ManDefaultRwrParams(ptr noundef nonnull %9) #13
  call void @Dar_ManDefaultRefParams(ptr noundef nonnull %10) #13
  %13 = getelementptr inbounds nuw i8, ptr %9, i64 16
  store i32 0, ptr %13, align 4, !tbaa !21
  %14 = getelementptr inbounds nuw i8, ptr %10, i64 16
  store i32 0, ptr %14, align 4, !tbaa !23
  %15 = getelementptr inbounds nuw i8, ptr %9, i64 32
  store i32 %2, ptr %15, align 4, !tbaa !25
  %16 = getelementptr inbounds nuw i8, ptr %10, i64 24
  store i32 %2, ptr %16, align 4, !tbaa !26
  %17 = call ptr @Aig_ManDupDfs(ptr noundef %0) #13
  %.not = icmp eq i32 %2, 0
  br i1 %.not, label %20, label %18

18:                                               ; preds = %3
  %19 = call i32 (ptr, ...) @printf(ptr noundef nonnull dereferenceable(1) @.str)
  call void @Aig_ManPrintStats(ptr noundef %17) #13
  br label %20

20:                                               ; preds = %18, %3
  %.not79 = icmp eq i32 %1, 0
  br i1 %.not79, label %39, label %21

21:                                               ; preds = %20
  %22 = getelementptr inbounds nuw i8, ptr %17, i64 488
  store i64 %12, ptr %22, align 8, !tbaa !3
  %23 = call ptr @Dar_ManBalance(ptr noundef %17, i32 noundef 0) #13
  call void @Aig_ManStop(ptr noundef %17) #13
  br i1 %.not, label %26, label %24

24:                                               ; preds = %21
  %25 = call i32 (ptr, ...) @printf(ptr noundef nonnull dereferenceable(1) @.str.1)
  call void @Aig_ManPrintStats(ptr noundef %23) #13
  br label %26

26:                                               ; preds = %24, %21
  %.not80 = icmp eq i64 %12, 0
  br i1 %.not80, label %39, label %27

27:                                               ; preds = %26
  call void @llvm.lifetime.start.p0(i64 16, ptr nonnull %8) #13
  %28 = call i32 @clock_gettime(i32 noundef 1, ptr noundef nonnull %8) #13
  %29 = icmp slt i32 %28, 0
  br i1 %29, label %Abc_Clock.exit, label %30

30:                                               ; preds = %27
  %31 = load i64, ptr %8, align 8, !tbaa !27
  %32 = mul nsw i64 %31, 1000000
  %33 = getelementptr inbounds nuw i8, ptr %8, i64 8
  %34 = load i64, ptr %33, align 8, !tbaa !29
  %35 = sdiv i64 %34, 1000
  %36 = add nsw i64 %35, %32
  br label %Abc_Clock.exit

Abc_Clock.exit:                                   ; preds = %27, %30
  %.0.i = phi i64 [ %36, %30 ], [ -1, %27 ]
  call void @llvm.lifetime.end.p0(i64 16, ptr nonnull %8) #13
  %37 = icmp sgt i64 %.0.i, %12
  br i1 %37, label %38, label %39

38:                                               ; preds = %Abc_Clock.exit
  %.not86 = icmp eq ptr %23, null
  br i1 %.not86, label %115, label %.sink.split

39:                                               ; preds = %26, %Abc_Clock.exit, %20
  %.071 = phi ptr [ %23, %Abc_Clock.exit ], [ %23, %26 ], [ %17, %20 ]
  %40 = getelementptr inbounds nuw i8, ptr %.071, i64 488
  store i64 %12, ptr %40, align 8, !tbaa !3
  %41 = call i32 @Dar_ManRewrite(ptr noundef %.071, ptr noundef nonnull %9) #13
  %42 = call ptr @Aig_ManDupDfs(ptr noundef %.071) #13
  call void @Aig_ManStop(ptr noundef %.071) #13
  br i1 %.not, label %45, label %43

43:                                               ; preds = %39
  %44 = call i32 (ptr, ...) @printf(ptr noundef nonnull dereferenceable(1) @.str.2)
  call void @Aig_ManPrintStats(ptr noundef %42) #13
  br label %45

45:                                               ; preds = %43, %39
  %.not81 = icmp eq i64 %12, 0
  br i1 %.not81, label %58, label %46

46:                                               ; preds = %45
  call void @llvm.lifetime.start.p0(i64 16, ptr nonnull %7) #13
  %47 = call i32 @clock_gettime(i32 noundef 1, ptr noundef nonnull %7) #13
  %48 = icmp slt i32 %47, 0
  br i1 %48, label %Abc_Clock.exit88, label %49

49:                                               ; preds = %46
  %50 = load i64, ptr %7, align 8, !tbaa !27
  %51 = mul nsw i64 %50, 1000000
  %52 = getelementptr inbounds nuw i8, ptr %7, i64 8
  %53 = load i64, ptr %52, align 8, !tbaa !29
  %54 = sdiv i64 %53, 1000
  %55 = add nsw i64 %54, %51
  br label %Abc_Clock.exit88

Abc_Clock.exit88:                                 ; preds = %46, %49
  %.0.i87 = phi i64 [ %55, %49 ], [ -1, %46 ]
  call void @llvm.lifetime.end.p0(i64 16, ptr nonnull %7) #13
  %56 = icmp sgt i64 %.0.i87, %12
  br i1 %56, label %57, label %58

57:                                               ; preds = %Abc_Clock.exit88
  %.not85 = icmp eq ptr %42, null
  br i1 %.not85, label %115, label %.sink.split

58:                                               ; preds = %Abc_Clock.exit88, %45
  %59 = getelementptr inbounds nuw i8, ptr %42, i64 488
  store i64 %12, ptr %59, align 8, !tbaa !3
  %60 = call i32 @Dar_ManRefactor(ptr noundef %42, ptr noundef nonnull %10) #13
  %61 = call ptr @Aig_ManDupDfs(ptr noundef %42) #13
  call void @Aig_ManStop(ptr noundef %42) #13
  br i1 %.not, label %64, label %62

62:                                               ; preds = %58
  %63 = call i32 (ptr, ...) @printf(ptr noundef nonnull dereferenceable(1) @.str.3)
  call void @Aig_ManPrintStats(ptr noundef %61) #13
  br label %64

64:                                               ; preds = %62, %58
  br i1 %.not81, label %77, label %65

65:                                               ; preds = %64
  call void @llvm.lifetime.start.p0(i64 16, ptr nonnull %6) #13
  %66 = call i32 @clock_gettime(i32 noundef 1, ptr noundef nonnull %6) #13
  %67 = icmp slt i32 %66, 0
  br i1 %67, label %Abc_Clock.exit90, label %68

68:                                               ; preds = %65
  %69 = load i64, ptr %6, align 8, !tbaa !27
  %70 = mul nsw i64 %69, 1000000
  %71 = getelementptr inbounds nuw i8, ptr %6, i64 8
  %72 = load i64, ptr %71, align 8, !tbaa !29
  %73 = sdiv i64 %72, 1000
  %74 = add nsw i64 %73, %70
  br label %Abc_Clock.exit90

Abc_Clock.exit90:                                 ; preds = %65, %68
  %.0.i89 = phi i64 [ %74, %68 ], [ -1, %65 ]
  call void @llvm.lifetime.end.p0(i64 16, ptr nonnull %6) #13
  %75 = icmp sgt i64 %.0.i89, %12
  br i1 %75, label %76, label %77

76:                                               ; preds = %Abc_Clock.exit90
  %.not84 = icmp eq ptr %61, null
  br i1 %.not84, label %115, label %.sink.split

77:                                               ; preds = %Abc_Clock.exit90, %64
  br i1 %.not79, label %96, label %78

78:                                               ; preds = %77
  %79 = getelementptr inbounds nuw i8, ptr %61, i64 488
  store i64 %12, ptr %79, align 8, !tbaa !3
  %80 = call ptr @Dar_ManBalance(ptr noundef %61, i32 noundef 0) #13
  call void @Aig_ManStop(ptr noundef %61) #13
  br i1 %.not, label %83, label %81

81:                                               ; preds = %78
  %82 = call i32 (ptr, ...) @printf(ptr noundef nonnull dereferenceable(1) @.str.1)
  call void @Aig_ManPrintStats(ptr noundef %80) #13
  br label %83

83:                                               ; preds = %81, %78
  br i1 %.not81, label %96, label %84

84:                                               ; preds = %83
  call void @llvm.lifetime.start.p0(i64 16, ptr nonnull %5) #13
  %85 = call i32 @clock_gettime(i32 noundef 1, ptr noundef nonnull %5) #13
  %86 = icmp slt i32 %85, 0
  br i1 %86, label %Abc_Clock.exit92, label %87

87:                                               ; preds = %84
  %88 = load i64, ptr %5, align 8, !tbaa !27
  %89 = mul nsw i64 %88, 1000000
  %90 = getelementptr inbounds nuw i8, ptr %5, i64 8
  %91 = load i64, ptr %90, align 8, !tbaa !29
  %92 = sdiv i64 %91, 1000
  %93 = add nsw i64 %92, %89
  br label %Abc_Clock.exit92

Abc_Clock.exit92:                                 ; preds = %84, %87
  %.0.i91 = phi i64 [ %93, %87 ], [ -1, %84 ]
  call void @llvm.lifetime.end.p0(i64 16, ptr nonnull %5) #13
  %94 = icmp sgt i64 %.0.i91, %12
  br i1 %94, label %95, label %96

95:                                               ; preds = %Abc_Clock.exit92
  %.not83 = icmp eq ptr %80, null
  br i1 %.not83, label %115, label %.sink.split

96:                                               ; preds = %83, %Abc_Clock.exit92, %77
  %.1 = phi ptr [ %80, %Abc_Clock.exit92 ], [ %80, %83 ], [ %61, %77 ]
  %97 = getelementptr inbounds nuw i8, ptr %.1, i64 488
  store i64 %12, ptr %97, align 8, !tbaa !3
  %98 = call i32 @Dar_ManRewrite(ptr noundef %.1, ptr noundef nonnull %9) #13
  %99 = call ptr @Aig_ManDupDfs(ptr noundef %.1) #13
  call void @Aig_ManStop(ptr noundef %.1) #13
  br i1 %.not, label %102, label %100

100:                                              ; preds = %96
  %101 = call i32 (ptr, ...) @printf(ptr noundef nonnull dereferenceable(1) @.str.2)
  call void @Aig_ManPrintStats(ptr noundef %99) #13
  br label %102

102:                                              ; preds = %100, %96
  br i1 %.not81, label %115, label %103

103:                                              ; preds = %102
  call void @llvm.lifetime.start.p0(i64 16, ptr nonnull %4) #13
  %104 = call i32 @clock_gettime(i32 noundef 1, ptr noundef nonnull %4) #13
  %105 = icmp slt i32 %104, 0
  br i1 %105, label %Abc_Clock.exit94, label %106

106:                                              ; preds = %103
  %107 = load i64, ptr %4, align 8, !tbaa !27
  %108 = mul nsw i64 %107, 1000000
  %109 = getelementptr inbounds nuw i8, ptr %4, i64 8
  %110 = load i64, ptr %109, align 8, !tbaa !29
  %111 = sdiv i64 %110, 1000
  %112 = add nsw i64 %111, %108
  br label %Abc_Clock.exit94

Abc_Clock.exit94:                                 ; preds = %103, %106
  %.0.i93 = phi i64 [ %112, %106 ], [ -1, %103 ]
  call void @llvm.lifetime.end.p0(i64 16, ptr nonnull %4) #13
  %113 = icmp sgt i64 %.0.i93, %12
  br i1 %113, label %114, label %115

114:                                              ; preds = %Abc_Clock.exit94
  %.not82 = icmp eq ptr %99, null
  br i1 %.not82, label %115, label %.sink.split

.sink.split:                                      ; preds = %114, %95, %76, %57, %38
  %.sink = phi ptr [ %23, %38 ], [ %42, %57 ], [ %61, %76 ], [ %80, %95 ], [ %99, %114 ]
  call void @Aig_ManStop(ptr noundef nonnull %.sink) #13
  br label %115

115:                                              ; preds = %.sink.split, %102, %Abc_Clock.exit94, %114, %95, %76, %57, %38
  %.0 = phi ptr [ null, %38 ], [ null, %57 ], [ null, %76 ], [ null, %95 ], [ null, %114 ], [ %99, %Abc_Clock.exit94 ], [ %99, %102 ], [ null, %.sink.split ]
  call void @llvm.lifetime.end.p0(i64 32, ptr nonnull %10) #13
  call void @llvm.lifetime.end.p0(i64 40, ptr nonnull %9) #13
  ret ptr %.0
}